target datalayout = "e-m:e-p270:32:32-p271:32:32-p272:64:64-i64:64-i128:128-f80:128-n8:16:32:64-S128"
target triple = "x86_64-pc-linux-gnu"

@ntt_mods = internal constant [5 x i64] [i64 2943102356486619137, i64 3064699546425622529, i64 3375447920714186753, i64 3821304283823865857, i64 4226628250287210497], align 16

; Function Attrs: inlinehint nounwind uwtable
define internal i64 @sub_mod(i64 noundef %0, i64 noundef %1, i64 noundef %2) #3 {
  %4 = alloca i64, align 8
  %5 = alloca i64, align 8
  %6 = alloca i64, align 8
  %7 = alloca i64, align 8
  store i64 %0, ptr %4, align 8, !tbaa !27
  store i64 %1, ptr %5, align 8, !tbaa !27
  store i64 %2, ptr %6, align 8, !tbaa !27
  call void @llvm.lifetime.start.p0(i64 8, ptr %7) #10
  %8 = load i64, ptr %4, align 8, !tbaa !27
  %9 = load i64, ptr %5, align 8, !tbaa !27
  %10 = sub i64 %8, %9
  store i64 %10, ptr %7, align 8, !tbaa !27
  %11 = load i64, ptr %7, align 8, !tbaa !27
  %12 = load i64, ptr %4, align 8, !tbaa !27
  %13 = icmp ugt i64 %11, %12
  br i1 %13, label %14, label %18

14:                                               ; preds = %3
  %15 = load i64, ptr %6, align 8, !tbaa !27
  %16 = load i64, ptr %7, align 8, !tbaa !27
  %17 = add i64 %16, %15
  store i64 %17, ptr %7, align 8, !tbaa !27
  br label %18

18:                                               ; preds = %14, %3
  %19 = load i64, ptr %7, align 8, !tbaa !27
  call void @llvm.lifetime.end.p0(i64 8, ptr %7) #10
  ret i64 %19
}

; Function Attrs: inlinehint nounwind uwtable
define internal i64 @mul_mod_fast3(i64 noundef %0, i64 noundef %1, i64 noundef %2, i64 noundef %3) #3 {
  %5 = alloca i64, align 8
  %6 = alloca i64, align 8
  %7 = alloca i64, align 8
  %8 = alloca i64, align 8
  %9 = alloca i64, align 8
  %10 = alloca i64, align 8
  store i64 %0, ptr %5, align 8, !tbaa !27
  store i64 %1, ptr %6, align 8, !tbaa !27
  store i64 %2, ptr %7, align 8, !tbaa !27
  store i64 %3, ptr %8, align 8, !tbaa !27
  call void @llvm.lifetime.start.p0(i64 8, ptr %9) #10
  call void @llvm.lifetime.start.p0(i64 8, ptr %10) #10
  %11 = load i64, ptr %5, align 8, !tbaa !27
  %12 = zext i64 %11 to i128
  %13 = load i64, ptr %8, align 8, !tbaa !27
  %14 = zext i64 %13 to i128
  %15 = mul i128 %12, %14
  %16 = lshr i128 %15, 64
  %17 = trunc i128 %16 to i64
  store i64 %17, ptr %10, align 8, !tbaa !27
  %18 = load i64, ptr %5, align 8, !tbaa !27
  %19 = load i64, ptr %6, align 8, !tbaa !27
  %20 = mul i64 %18, %19
  %21 = load i64, ptr %10, align 8, !tbaa !27
  %22 = load i64, ptr %7, align 8, !tbaa !27
  %23 = mul i64 %21, %22
  %24 = sub i64 %20, %23
  store i64 %24, ptr %9, align 8, !tbaa !27
  %25 = load i64, ptr %9, align 8, !tbaa !27
  call void @llvm.lifetime.end.p0(i64 8, ptr %10) #10
  call void @llvm.lifetime.end.p0(i64 8, ptr %9) #10
  ret i64 %25
}

; Function Attrs: inlinehint nounwind uwtable
define internal i64 @add_mod(i64 noundef %0, i64 noundef %1, i64 noundef %2) #3 {
  %4 = alloca i64, align 8
  %5 = alloca i64, align 8
  %6 = alloca i64, align 8
  %7 = alloca i64, align 8
  store i64 %0, ptr %4, align 8, !tbaa !27
  store i64 %1, ptr %5, align 8, !tbaa !27
  store i64 %2, ptr %6, align 8, !tbaa !27
  call void @llvm.lifetime.start.p0(i64 8, ptr %7) #10
  %8 = load i64, ptr %4, align 8, !tbaa !27
  %9 = load i64, ptr %5, align 8, !tbaa !27
  %10 = add i64 %8, %9
  store i64 %10, ptr %7, align 8, !tbaa !27
  %11 = load i64, ptr %7, align 8, !tbaa !27
  %12 = load i64, ptr %6, align 8, !tbaa !27
  %13 = icmp uge i64 %11, %12
  br i1 %13, label %14, label %18

14:                                               ; preds = %3
  %15 = load i64, ptr %6, align 8, !tbaa !27
  %16 = load i64, ptr %7, align 8, !tbaa !27
  %17 = sub i64 %16, %15
  store i64 %17, ptr %7, align 8, !tbaa !27
  br label %18

18:                                               ; preds = %14, %3
  %19 = load i64, ptr %7, align 8, !tbaa !27
  call void @llvm.lifetime.end.p0(i64 8, ptr %7) #10
  ret i64 %19
}

; Function Attrs: noinline nounwind uwtable
define internal i32 @ntt_fft(ptr noundef %0, ptr noundef %1, ptr noundef %2, ptr noundef %3, i32 noundef %4, i32 noundef %5, i32 noundef %6) #7 {
  %8 = alloca i32, align 4
  %9 = alloca ptr, align 8
  %10 = alloca ptr, align 8
  %11 = alloca ptr, align 8
  %12 = alloca ptr, align 8
  %13 = alloca i32, align 4
  %14 = alloca i32, align 4
  %15 = alloca i32, align 4
  %16 = alloca i64, align 8
  %17 = alloca i64, align 8
  %18 = alloca i64, align 8
  %19 = alloca i64, align 8
  %20 = alloca i64, align 8
  %21 = alloca i64, align 8
  %22 = alloca i64, align 8
  %23 = alloca i64, align 8
  %24 = alloca i64, align 8
  %25 = alloca i64, align 8
  %26 = alloca ptr, align 8
  %27 = alloca ptr, align 8
  %28 = alloca ptr, align 8
  %29 = alloca i64, align 8
  %30 = alloca i64, align 8
  %31 = alloca i64, align 8
  %32 = alloca i64, align 8
  %33 = alloca i64, align 8
  %34 = alloca ptr, align 8
  %35 = alloca i64, align 8
  %36 = alloca i32, align 4
  %37 = alloca i32, align 4
  store ptr %0, ptr %9, align 8, !tbaa !50
  store ptr %1, ptr %10, align 8, !tbaa !28
  store ptr %2, ptr %11, align 8, !tbaa !28
  store ptr %3, ptr %12, align 8, !tbaa !28
  store i32 %4, ptr %13, align 4, !tbaa !29
  store i32 %5, ptr %14, align 4, !tbaa !29
  store i32 %6, ptr %15, align 4, !tbaa !29
  call void @llvm.lifetime.start.p0(i64 8, ptr %16) #10
  call void @llvm.lifetime.start.p0(i64 8, ptr %17) #10
  call void @llvm.lifetime.start.p0(i64 8, ptr %18) #10
  call void @llvm.lifetime.start.p0(i64 8, ptr %19) #10
  call void @llvm.lifetime.start.p0(i64 8, ptr %20) #10
  call void @llvm.lifetime.start.p0(i64 8, ptr %21) #10
  call void @llvm.lifetime.start.p0(i64 8, ptr %22) #10
  call void @llvm.lifetime.start.p0(i64 8, ptr %23) #10
  call void @llvm.lifetime.start.p0(i64 8, ptr %24) #10
  call void @llvm.lifetime.start.p0(i64 8, ptr %25) #10
  call void @llvm.lifetime.start.p0(i64 8, ptr %26) #10
  call void @llvm.lifetime.start.p0(i64 8, ptr %27) #10
  call void @llvm.lifetime.start.p0(i64 8, ptr %28) #10
  call void @llvm.lifetime.start.p0(i64 8, ptr %29) #10
  call void @llvm.lifetime.start.p0(i64 8, ptr %30) #10
  call void @llvm.lifetime.start.p0(i64 8, ptr %31) #10
  call void @llvm.lifetime.start.p0(i64 8, ptr %32) #10
  call void @llvm.lifetime.start.p0(i64 8, ptr %33) #10
  call void @llvm.lifetime.start.p0(i64 8, ptr %34) #10
  call void @llvm.lifetime.start.p0(i64 8, ptr %35) #10
  call void @llvm.lifetime.start.p0(i64 4, ptr %36) #10
  %38 = load i32, ptr %15, align 4, !tbaa !29
  %39 = sext i32 %38 to i64
  %40 = getelementptr inbounds [5 x i64], ptr @ntt_mods, i64 0, i64 %39
  %41 = load i64, ptr %40, align 8, !tbaa !27
  store i64 %41, ptr %24, align 8, !tbaa !27
  %42 = load i64, ptr %24, align 8, !tbaa !27
  %43 = mul i64 2, %42
  store i64 %43, ptr %25, align 8, !tbaa !27
  %44 = load i32, ptr %13, align 4, !tbaa !29
  %45 = zext i32 %44 to i64
  %46 = shl i64 1, %45
  store i64 %46, ptr %20, align 8, !tbaa !27
  %47 = load i64, ptr %20, align 8, !tbaa !27
  store i64 %47, ptr %16, align 8, !tbaa !27
  store i64 1, ptr %17, align 8, !tbaa !27
  %48 = load i64, ptr %20, align 8, !tbaa !27
  %49 = udiv i64 %48, 2
  store i64 %49, ptr %21, align 8, !tbaa !27
  %50 = load ptr, ptr %11, align 8, !tbaa !28
  store ptr %50, ptr %26, align 8, !tbaa !28
  %51 = load ptr, ptr %12, align 8, !tbaa !28
  store ptr %51, ptr %27, align 8, !tbaa !28
  %52 = load i32, ptr %13, align 4, !tbaa !29
  store i32 %52, ptr %36, align 4, !tbaa !29
  br label %53

53:                                               ; preds = %142, %7
  %54 = load i64, ptr %16, align 8, !tbaa !27
  %55 = icmp ne i64 %54, 2
  br i1 %55, label %56, label %150

56:                                               ; preds = %53
  %57 = load i64, ptr %16, align 8, !tbaa !27
  %58 = lshr i64 %57, 1
  store i64 %58, ptr %16, align 8, !tbaa !27
  store i64 0, ptr %18, align 8, !tbaa !27
  store i64 0, ptr %19, align 8, !tbaa !27
  %59 = load ptr, ptr %9, align 8, !tbaa !50
  %60 = load i32, ptr %36, align 4, !tbaa !29
  %61 = load i32, ptr %14, align 4, !tbaa !29
  %62 = load i32, ptr %15, align 4, !tbaa !29
  %63 = call ptr @get_trig(ptr noundef %59, i32 noundef %60, i32 noundef %61, i32 noundef %62)
  store ptr %63, ptr %34, align 8, !tbaa !28
  %64 = load ptr, ptr %34, align 8, !tbaa !28
  %65 = icmp ne ptr %64, null
  br i1 %65, label %67, label %66

66:                                               ; preds = %56
  store i32 -1, ptr %8, align 4
  store i32 1, ptr %37, align 4
  br label %189

67:                                               ; preds = %56
  store i64 0, ptr %22, align 8, !tbaa !27
  br label %68

68:                                               ; preds = %139, %67
  %69 = load i64, ptr %22, align 8, !tbaa !27
  %70 = load i64, ptr %16, align 8, !tbaa !27
  %71 = icmp ult i64 %69, %70
  br i1 %71, label %72, label %142

72:                                               ; preds = %68
  %73 = load ptr, ptr %34, align 8, !tbaa !28
  %74 = getelementptr inbounds i64, ptr %73, i64 0
  %75 = load i64, ptr %74, align 8, !tbaa !27
  store i64 %75, ptr %33, align 8, !tbaa !27
  %76 = load ptr, ptr %34, align 8, !tbaa !28
  %77 = getelementptr inbounds i64, ptr %76, i64 1
  %78 = load i64, ptr %77, align 8, !tbaa !27
  store i64 %78, ptr %35, align 8, !tbaa !27
  %79 = load ptr, ptr %34, align 8, !tbaa !28
  %80 = getelementptr inbounds i64, ptr %79, i64 2
  store ptr %80, ptr %34, align 8, !tbaa !28
  store i64 0, ptr %23, align 8, !tbaa !27
  br label %81

81:                                               ; preds = %128, %72
  %82 = load i64, ptr %23, align 8, !tbaa !27
  %83 = load i64, ptr %17, align 8, !tbaa !27
  %84 = icmp ult i64 %82, %83
  br i1 %84, label %85, label %131

85:                                               ; preds = %81
  %86 = load ptr, ptr %26, align 8, !tbaa !28
  %87 = load i64, ptr %19, align 8, !tbaa !27
  %88 = load i64, ptr %23, align 8, !tbaa !27
  %89 = add i64 %87, %88
  %90 = getelementptr inbounds nuw i64, ptr %86, i64 %89
  %91 = load i64, ptr %90, align 8, !tbaa !27
  store i64 %91, ptr %29, align 8, !tbaa !27
  %92 = load ptr, ptr %26, align 8, !tbaa !28
  %93 = load i64, ptr %19, align 8, !tbaa !27
  %94 = load i64, ptr %23, align 8, !tbaa !27
  %95 = add i64 %93, %94
  %96 = load i64, ptr %21, align 8, !tbaa !27
  %97 = add i64 %95, %96
  %98 = getelementptr inbounds nuw i64, ptr %92, i64 %97
  %99 = load i64, ptr %98, align 8, !tbaa !27
  store i64 %99, ptr %30, align 8, !tbaa !27
  %100 = load i64, ptr %29, align 8, !tbaa !27
  %101 = load i64, ptr %30, align 8, !tbaa !27
  %102 = load i64, ptr %25, align 8, !tbaa !27
  %103 = call i64 @add_mod(i64 noundef %100, i64 noundef %101, i64 noundef %102)
  store i64 %103, ptr %31, align 8, !tbaa !27
  %104 = load i64, ptr %29, align 8, !tbaa !27
  %105 = load i64, ptr %30, align 8, !tbaa !27
  %106 = sub i64 %104, %105
  %107 = load i64, ptr %25, align 8, !tbaa !27
  %108 = add i64 %106, %107
  store i64 %108, ptr %32, align 8, !tbaa !27
  %109 = load i64, ptr %32, align 8, !tbaa !27
  %110 = load i64, ptr %33, align 8, !tbaa !27
  %111 = load i64, ptr %24, align 8, !tbaa !27
  %112 = load i64, ptr %35, align 8, !tbaa !27
  %113 = call i64 @mul_mod_fast3(i64 noundef %109, i64 noundef %110, i64 noundef %111, i64 noundef %112)
  store i64 %113, ptr %32, align 8, !tbaa !27
  %114 = load i64, ptr %31, align 8, !tbaa !27
  %115 = load ptr, ptr %27, align 8, !tbaa !28
  %116 = load i64, ptr %18, align 8, !tbaa !27
  %117 = load i64, ptr %23, align 8, !tbaa !27
  %118 = add i64 %116, %117
  %119 = getelementptr inbounds nuw i64, ptr %115, i64 %118
  store i64 %114, ptr %119, align 8, !tbaa !27
  %120 = load i64, ptr %32, align 8, !tbaa !27
  %121 = load ptr, ptr %27, align 8, !tbaa !28
  %122 = load i64, ptr %18, align 8, !tbaa !27
  %123 = load i64, ptr %23, align 8, !tbaa !27
  %124 = add i64 %122, %123
  %125 = load i64, ptr %17, align 8, !tbaa !27
  %126 = add i64 %124, %125
  %127 = getelementptr inbounds nuw i64, ptr %121, i64 %126
  store i64 %120, ptr %127, align 8, !tbaa !27
  br label %128

128:                                              ; preds = %85
  %129 = load i64, ptr %23, align 8, !tbaa !27
  %130 = add i64 %129, 1
  store i64 %130, ptr %23, align 8, !tbaa !27
  br label %81, !llvm.loop !198

131:                                              ; preds = %81
  %132 = load i64, ptr %17, align 8, !tbaa !27
  %133 = load i64, ptr %19, align 8, !tbaa !27
  %134 = add i64 %133, %132
  store i64 %134, ptr %19, align 8, !tbaa !27
  %135 = load i64, ptr %17, align 8, !tbaa !27
  %136 = mul i64 2, %135
  %137 = load i64, ptr %18, align 8, !tbaa !27
  %138 = add i64 %137, %136
  store i64 %138, ptr %18, align 8, !tbaa !27
  br label %139

139:                                              ; preds = %131
  %140 = load i64, ptr %22, align 8, !tbaa !27
  %141 = add i64 %140, 1
  store i64 %141, ptr %22, align 8, !tbaa !27
  br label %68, !llvm.loop !199

142:                                              ; preds = %68
  %143 = load i64, ptr %17, align 8, !tbaa !27
  %144 = shl i64 %143, 1
  store i64 %144, ptr %17, align 8, !tbaa !27
  %145 = load i32, ptr %36, align 4, !tbaa !29
  %146 = add i32 %145, -1
  store i32 %146, ptr %36, align 4, !tbaa !29
  %147 = load ptr, ptr %26, align 8, !tbaa !28
  store ptr %147, ptr %28, align 8, !tbaa !28
  %148 = load ptr, ptr %27, align 8, !tbaa !28
  store ptr %148, ptr %26, align 8, !tbaa !28
  %149 = load ptr, ptr %28, align 8, !tbaa !28
  store ptr %149, ptr %27, align 8, !tbaa !28
  br label %53, !llvm.loop !200

150:                                              ; preds = %53
  %151 = load ptr, ptr %10, align 8, !tbaa !28
  store ptr %151, ptr %27, align 8, !tbaa !28
  store i64 0, ptr %19, align 8, !tbaa !27
  br label %152

152:                                              ; preds = %185, %150
  %153 = load i64, ptr %19, align 8, !tbaa !27
  %154 = load i64, ptr %21, align 8, !tbaa !27
  %155 = icmp ult i64 %153, %154
  br i1 %155, label %156, label %188

156:                                              ; preds = %152
  %157 = load ptr, ptr %26, align 8, !tbaa !28
  %158 = load i64, ptr %19, align 8, !tbaa !27
  %159 = getelementptr inbounds nuw i64, ptr %157, i64 %158
  %160 = load i64, ptr %159, align 8, !tbaa !27
  store i64 %160, ptr %29, align 8, !tbaa !27
  %161 = load ptr, ptr %26, align 8, !tbaa !28
  %162 = load i64, ptr %19, align 8, !tbaa !27
  %163 = load i64, ptr %21, align 8, !tbaa !27
  %164 = add i64 %162, %163
  %165 = getelementptr inbounds nuw i64, ptr %161, i64 %164
  %166 = load i64, ptr %165, align 8, !tbaa !27
  store i64 %166, ptr %30, align 8, !tbaa !27
  %167 = load i64, ptr %29, align 8, !tbaa !27
  %168 = load i64, ptr %30, align 8, !tbaa !27
  %169 = load i64, ptr %25, align 8, !tbaa !27
  %170 = call i64 @add_mod(i64 noundef %167, i64 noundef %168, i64 noundef %169)
  store i64 %170, ptr %31, align 8, !tbaa !27
  %171 = load i64, ptr %29, align 8, !tbaa !27
  %172 = load i64, ptr %30, align 8, !tbaa !27
  %173 = load i64, ptr %25, align 8, !tbaa !27
  %174 = call i64 @sub_mod(i64 noundef %171, i64 noundef %172, i64 noundef %173)
  store i64 %174, ptr %32, align 8, !tbaa !27
  %175 = load i64, ptr %31, align 8, !tbaa !27
  %176 = load ptr, ptr %27, align 8, !tbaa !28
  %177 = load i64, ptr %19, align 8, !tbaa !27
  %178 = getelementptr inbounds nuw i64, ptr %176, i64 %177
  store i64 %175, ptr %178, align 8, !tbaa !27
  %179 = load i64, ptr %32, align 8, !tbaa !27
  %180 = load ptr, ptr %27, align 8, !tbaa !28
  %181 = load i64, ptr %19, align 8, !tbaa !27
  %182 = load i64, ptr %21, align 8, !tbaa !27
  %183 = add i64 %181, %182
  %184 = getelementptr inbounds nuw i64, ptr %180, i64 %183
  store i64 %179, ptr %184, align 8, !tbaa !27
  br label %185

185:                                              ; preds = %156
  %186 = load i64, ptr %19, align 8, !tbaa !27
  %187 = add i64 %186, 1
  store i64 %187, ptr %19, align 8, !tbaa !27
  br label %152, !llvm.loop !201

188:                                              ; preds = %152
  store i32 0, ptr %8, align 4
  store i32 1, ptr %37, align 4
  br label %189

189:                                              ; preds = %188, %66
  call void @llvm.lifetime.end.p0(i64 4, ptr %36) #10
  call void @llvm.lifetime.end.p0(i64 8, ptr %35) #10
  call void @llvm.lifetime.end.p0(i64 8, ptr %34) #10
  call void @llvm.lifetime.end.p0(i64 8, ptr %33) #10
  call void @llvm.lifetime.end.p0(i64 8, ptr %32) #10
  call void @llvm.lifetime.end.p0(i64 8, ptr %31) #10
  call void @llvm.lifetime.end.p0(i64 8, ptr %30) #10
  call void @llvm.lifetime.end.p0(i64 8, ptr %29) #10
  call void @llvm.lifetime.end.p0(i64 8, ptr %28) #10
  call void @llvm.lifetime.end.p0(i64 8, ptr %27) #10
  call void @llvm.lifetime.end.p0(i64 8, ptr %26) #10
  call void @llvm.lifetime.end.p0(i64 8, ptr %25) #10
  call void @llvm.lifetime.end.p0(i64 8, ptr %24) #10
  call void @llvm.lifetime.end.p0(i64 8, ptr %23) #10
  call void @llvm.lifetime.end.p0(i64 8, ptr %22) #10
  call void @llvm.lifetime.end.p0(i64 8, ptr %21) #10
  call void @llvm.lifetime.end.p0(i64 8, ptr %20) #10
  call void @llvm.lifetime.end.p0(i64 8, ptr %19) #10
  call void @llvm.lifetime.end.p0(i64 8, ptr %18) #10
  call void @llvm.lifetime.end.p0(i64 8, ptr %17) #10
  call void @llvm.lifetime.end.p0(i64 8, ptr %16) #10
  %190 = load i32, ptr %8, align 4
  ret i32 %190
}