; Function Attrs: noinline nounwind uwtable
define internal fastcc range(i32 -1, 1) i32 @ntt_fft(ptr noundef captures(none) %0, ptr noundef nonnull writeonly captures(none) %1, ptr noundef nonnull captures(none) %2, ptr noundef nonnull captures(none) %3, i32 noundef %4, i32 noundef range(i32 0, 2) %5, i32 noundef %6) unnamed_addr #9 {
  %8 = sext i32 %6 to i64
  %9 = getelementptr inbounds [5 x i64], ptr @ntt_mods, i64 0, i64 %8
  %10 = load i64, ptr %9, align 8, !tbaa !33
  %11 = shl i64 %10, 1
  %12 = zext nneg i32 %4 to i64
  %13 = shl nuw i64 1, %12
  %14 = lshr i64 %13, 1
  %.not108 = icmp eq i32 %4, 1
  br i1 %.not108, label %.lr.ph116.preheader, label %.lr.ph

.preheader:                                       ; preds = %._crit_edge107
  %.not119 = icmp eq i32 %4, 0
  br i1 %.not119, label %.loopexit, label %.lr.ph116.preheader

.lr.ph116.preheader:                              ; preds = %7, %.preheader
  %.086.lcssa127 = phi ptr [ %.085110, %.preheader ], [ %2, %7 ]
  %umax = tail call i64 @llvm.umax.i64(i64 %14, i64 1)
  br label %.lr.ph116

.lr.ph:                                           ; preds = %7, %._crit_edge107
  %.0114 = phi i32 [ %47, %._crit_edge107 ], [ %4, %7 ]
  %.083113 = phi i64 [ %15, %._crit_edge107 ], [ %13, %7 ]
  %.084111 = phi i64 [ %.pre-phi, %._crit_edge107 ], [ 1, %7 ]
  %.085110 = phi ptr [ %.086109, %._crit_edge107 ], [ %3, %7 ]
  %.086109 = phi ptr [ %.085110, %._crit_edge107 ], [ %2, %7 ]
  %15 = lshr i64 %.083113, 1
  %16 = tail call fastcc ptr @get_trig(ptr noundef %0, i32 noundef %.0114, i32 noundef %5, i32 noundef %6)
  %.not94 = icmp eq ptr %16, null
  br i1 %.not94, label %.loopexit, label %.preheader98

.preheader98:                                     ; preds = %.lr.ph
  %.not117 = icmp ult i64 %.083113, 2
  br i1 %.not117, label %.preheader98.._crit_edge107_crit_edge, label %.lr.ph106

.preheader98.._crit_edge107_crit_edge:            ; preds = %.preheader98
  %.pre = shl i64 %.084111, 1
  br label %._crit_edge107

.lr.ph106:                                        ; preds = %.preheader98
  %.not118 = icmp eq i64 %.084111, 0
  %17 = shl i64 %.084111, 1
  br i1 %.not118, label %._crit_edge107, label %.lr.ph.us

.lr.ph.us:                                        ; preds = %.lr.ph106, %._crit_edge.us
  %.082105.us = phi ptr [ %43, %._crit_edge.us ], [ %16, %.lr.ph106 ]
  %.087104.us = phi i64 [ %45, %._crit_edge.us ], [ 0, %.lr.ph106 ]
  %.088103.us = phi i64 [ %44, %._crit_edge.us ], [ 0, %.lr.ph106 ]
  %.090102.us = phi i64 [ %46, %._crit_edge.us ], [ 0, %.lr.ph106 ]
  %18 = load i64, ptr %.082105.us, align 8, !tbaa !33
  %19 = getelementptr inbounds nuw i8, ptr %.082105.us, i64 8
  %20 = load i64, ptr %19, align 8, !tbaa !33
  %21 = getelementptr i64, ptr %.086109, i64 %.088103.us
  %22 = zext i64 %20 to i128
  %23 = getelementptr i64, ptr %.085110, i64 %.087104.us
  br label %24

24:                                               ; preds = %.lr.ph.us, %24
  %.089101.us = phi i64 [ 0, %.lr.ph.us ], [ %42, %24 ]
  %25 = getelementptr i64, ptr %21, i64 %.089101.us
  %26 = load i64, ptr %25, align 8, !tbaa !33
  %27 = getelementptr i64, ptr %25, i64 %14
  %28 = load i64, ptr %27, align 8, !tbaa !33
  %29 = add i64 %28, %26
  %.not.i.us = icmp ult i64 %29, %11
  %30 = select i1 %.not.i.us, i64 0, i64 %11
  %spec.select.i.us = sub nuw i64 %29, %30
  %31 = sub i64 %26, %28
  %32 = add i64 %31, %11
  %33 = zext i64 %32 to i128
  %34 = mul nuw i128 %33, %22
  %35 = lshr i128 %34, 64
  %36 = trunc nuw i128 %35 to i64
  %37 = mul i64 %32, %18
  %38 = mul i64 %10, %36
  %39 = sub i64 %37, %38
  %40 = getelementptr i64, ptr %23, i64 %.089101.us
  store i64 %spec.select.i.us, ptr %40, align 8, !tbaa !33
  %41 = getelementptr i64, ptr %40, i64 %.084111
  store i64 %39, ptr %41, align 8, !tbaa !33
  %42 = add nuw i64 %.089101.us, 1
  %exitcond.not = icmp eq i64 %42, %.084111
  br i1 %exitcond.not, label %._crit_edge.us, label %24, !llvm.loop !179

._crit_edge.us:                                   ; preds = %24
  %43 = getelementptr inbounds nuw i8, ptr %.082105.us, i64 16
  %44 = add i64 %.088103.us, %.084111
  %45 = add i64 %.087104.us, %17
  %46 = add nuw nsw i64 %.090102.us, 1
  %exitcond123.not = icmp eq i64 %46, %15
  br i1 %exitcond123.not, label %._crit_edge107, label %.lr.ph.us, !llvm.loop !180

._crit_edge107:                                   ; preds = %._crit_edge.us, %.lr.ph106, %.preheader98.._crit_edge107_crit_edge
  %.pre-phi = phi i64 [ %.pre, %.preheader98.._crit_edge107_crit_edge ], [ 0, %.lr.ph106 ], [ %17, %._crit_edge.us ]
  %47 = add i32 %.0114, -1
  %.not = icmp eq i64 %15, 2
  br i1 %.not, label %.preheader, label %.lr.ph, !llvm.loop !181

.lr.ph116:                                        ; preds = %.lr.ph116.preheader, %.lr.ph116
  %.1115 = phi i64 [ %60, %.lr.ph116 ], [ 0, %.lr.ph116.preheader ]
  %48 = getelementptr inbounds nuw i64, ptr %.086.lcssa127, i64 %.1115
  %49 = load i64, ptr %48, align 8, !tbaa !33
  %50 = add nuw i64 %.1115, %14
  %51 = getelementptr inbounds nuw i64, ptr %.086.lcssa127, i64 %50
  %52 = load i64, ptr %51, align 8, !tbaa !33
  %53 = add i64 %52, %49
  %.not.i95 = icmp ult i64 %53, %11
  %54 = select i1 %.not.i95, i64 0, i64 %11
  %spec.select.i96 = sub nuw i64 %53, %54
  %55 = sub i64 %49, %52
  %56 = icmp ugt i64 %52, %49
  %57 = select i1 %56, i64 %11, i64 0
  %spec.select.i97 = add i64 %55, %57
  %58 = getelementptr inbounds nuw i64, ptr %1, i64 %.1115
  store i64 %spec.select.i96, ptr %58, align 8, !tbaa !33
  %59 = getelementptr inbounds nuw i64, ptr %1, i64 %50
  store i64 %spec.select.i97, ptr %59, align 8, !tbaa !33
  %60 = add nuw nsw i64 %.1115, 1
  %exitcond124.not = icmp eq i64 %60, %umax
  br i1 %exitcond124.not, label %.loopexit, label %.lr.ph116, !llvm.loop !182

.loopexit:                                        ; preds = %.lr.ph, %.lr.ph116, %.preheader
  %.081 = phi i32 [ 0, %.preheader ], [ 0, %.lr.ph116 ], [ -1, %.lr.ph ]
  ret i32 %.081
}